; Function Attrs: mustprogress nounwind uwtable
define hidden void @_ZN17BytecodeAssembler6appendEj(ptr nocapture noundef nonnull readonly align 8 dereferenceable(16) %0, i32 noundef %1) local_unnamed_addr #0 align 2 {
  %3 = load ptr, ptr %0, align 8
  %4 = load i32, ptr %3, align 8
  %5 = getelementptr inbounds i8, ptr %3, i64 4
  %6 = load i32, ptr %5, align 4
  %7 = icmp eq i32 %4, %6
  br i1 %7, label %8, label %_ZN26GrowableArrayWithAllocatorIh13GrowableArrayIhEE6appendERKh.exit

8:                                                ; preds = %2
  %9 = add nsw i32 %4, 1
  %10 = icmp sgt i32 %4, -1
  %11 = xor i32 %4, -2147483648
  %12 = and i32 %11, %9
  %13 = icmp eq i32 %12, 0
  %14 = and i1 %10, %13
  %15 = tail call range(i32 0, 33) i32 @llvm.ctlz.i32(i32 %9, i1 true)
  %16 = sub nuw nsw i32 32, %15
  %17 = shl nuw i32 1, %16
  %.0.i.i.i.i = select i1 %14, i32 %9, i32 %17
  tail call void @_ZN26GrowableArrayWithAllocatorIh13GrowableArrayIhEE9expand_toEi(ptr noundef nonnull align 8 dereferenceable(16) %3, i32 noundef %.0.i.i.i.i)
  %.pre.i = load i32, ptr %3, align 8
  br label %_ZN26GrowableArrayWithAllocatorIh13GrowableArrayIhEE6appendERKh.exit

_ZN26GrowableArrayWithAllocatorIh13GrowableArrayIhEE6appendERKh.exit: ; preds = %2, %8
  %18 = phi i32 [ %.pre.i, %8 ], [ %4, %2 ]
  %19 = add nsw i32 %18, 1
  store i32 %19, ptr %3, align 8
  %20 = getelementptr inbounds i8, ptr %3, i64 8
  %21 = load ptr, ptr %20, align 8
  %22 = sext i32 %18 to i64
  %23 = getelementptr inbounds i8, ptr %21, i64 %22
  store i8 0, ptr %23, align 1
  %24 = load ptr, ptr %0, align 8
  %25 = load i32, ptr %24, align 8
  %26 = getelementptr inbounds i8, ptr %24, i64 4
  %27 = load i32, ptr %26, align 4
  %28 = icmp eq i32 %25, %27
  br i1 %28, label %29, label %_ZN26GrowableArrayWithAllocatorIh13GrowableArrayIhEE6appendERKh.exit3

29:                                               ; preds = %_ZN26GrowableArrayWithAllocatorIh13GrowableArrayIhEE6appendERKh.exit
  %30 = add nsw i32 %25, 1
  %31 = icmp sgt i32 %25, -1
  %32 = xor i32 %25, -2147483648
  %33 = and i32 %32, %30
  %34 = icmp eq i32 %33, 0
  %35 = and i1 %31, %34
  %36 = tail call range(i32 0, 33) i32 @llvm.ctlz.i32(i32 %30, i1 true)
  %37 = sub nuw nsw i32 32, %36
  %38 = shl nuw i32 1, %37
  %.0.i.i.i.i1 = select i1 %35, i32 %30, i32 %38
  tail call void @_ZN26GrowableArrayWithAllocatorIh13GrowableArrayIhEE9expand_toEi(ptr noundef nonnull align 8 dereferenceable(16) %24, i32 noundef %.0.i.i.i.i1)
  %.pre.i2 = load i32, ptr %24, align 8
  br label %_ZN26GrowableArrayWithAllocatorIh13GrowableArrayIhEE6appendERKh.exit3

_ZN26GrowableArrayWithAllocatorIh13GrowableArrayIhEE6appendERKh.exit3: ; preds = %_ZN26GrowableArrayWithAllocatorIh13GrowableArrayIhEE6appendERKh.exit, %29
  %39 = phi i32 [ %.pre.i2, %29 ], [ %25, %_ZN26GrowableArrayWithAllocatorIh13GrowableArrayIhEE6appendERKh.exit ]
  %40 = add nsw i32 %39, 1
  store i32 %40, ptr %24, align 8
  %41 = getelementptr inbounds i8, ptr %24, i64 8
  %42 = load ptr, ptr %41, align 8
  %43 = sext i32 %39 to i64
  %44 = getelementptr inbounds i8, ptr %42, i64 %43
  store i8 0, ptr %44, align 1
  %45 = load ptr, ptr %0, align 8
  %46 = load i32, ptr %45, align 8
  %47 = getelementptr inbounds i8, ptr %45, i64 4
  %48 = load i32, ptr %47, align 4
  %49 = icmp eq i32 %46, %48
  br i1 %49, label %50, label %_ZN26GrowableArrayWithAllocatorIh13GrowableArrayIhEE6appendERKh.exit6

50:                                               ; preds = %_ZN26GrowableArrayWithAllocatorIh13GrowableArrayIhEE6appendERKh.exit3
  %51 = add nsw i32 %46, 1
  %52 = icmp sgt i32 %46, -1
  %53 = xor i32 %46, -2147483648
  %54 = and i32 %53, %51
  %55 = icmp eq i32 %54, 0
  %56 = and i1 %52, %55
  %57 = tail call range(i32 0, 33) i32 @llvm.ctlz.i32(i32 %51, i1 true)
  %58 = sub nuw nsw i32 32, %57
  %59 = shl nuw i32 1, %58
  %.0.i.i.i.i4 = select i1 %56, i32 %51, i32 %59
  tail call void @_ZN26GrowableArrayWithAllocatorIh13GrowableArrayIhEE9expand_toEi(ptr noundef nonnull align 8 dereferenceable(16) %45, i32 noundef %.0.i.i.i.i4)
  %.pre.i5 = load i32, ptr %45, align 8
  br label %_ZN26GrowableArrayWithAllocatorIh13GrowableArrayIhEE6appendERKh.exit6

_ZN26GrowableArrayWithAllocatorIh13GrowableArrayIhEE6appendERKh.exit6: ; preds = %_ZN26GrowableArrayWithAllocatorIh13GrowableArrayIhEE6appendERKh.exit3, %50
  %60 = phi i32 [ %.pre.i5, %50 ], [ %46, %_ZN26GrowableArrayWithAllocatorIh13GrowableArrayIhEE6appendERKh.exit3 ]
  %61 = add nsw i32 %60, 1
  store i32 %61, ptr %45, align 8
  %62 = getelementptr inbounds i8, ptr %45, i64 8
  %63 = load ptr, ptr %62, align 8
  %64 = sext i32 %60 to i64
  %65 = getelementptr inbounds i8, ptr %63, i64 %64
  store i8 0, ptr %65, align 1
  %66 = load ptr, ptr %0, align 8
  %67 = load i32, ptr %66, align 8
  %68 = getelementptr inbounds i8, ptr %66, i64 4
  %69 = load i32, ptr %68, align 4
  %70 = icmp eq i32 %67, %69
  br i1 %70, label %71, label %_ZN26GrowableArrayWithAllocatorIh13GrowableArrayIhEE6appendERKh.exit9

71:                                               ; preds = %_ZN26GrowableArrayWithAllocatorIh13GrowableArrayIhEE6appendERKh.exit6
  %72 = add nsw i32 %67, 1
  %73 = icmp sgt i32 %67, -1
  %74 = xor i32 %67, -2147483648
  %75 = and i32 %74, %72
  %76 = icmp eq i32 %75, 0
  %77 = and i1 %73, %76
  %78 = tail call range(i32 0, 33) i32 @llvm.ctlz.i32(i32 %72, i1 true)
  %79 = sub nuw nsw i32 32, %78
  %80 = shl nuw i32 1, %79
  %.0.i.i.i.i7 = select i1 %77, i32 %72, i32 %80
  tail call void @_ZN26GrowableArrayWithAllocatorIh13GrowableArrayIhEE9expand_toEi(ptr noundef nonnull align 8 dereferenceable(16) %66, i32 noundef %.0.i.i.i.i7)
  %.pre.i8 = load i32, ptr %66, align 8
  br label %_ZN26GrowableArrayWithAllocatorIh13GrowableArrayIhEE6appendERKh.exit9

_ZN26GrowableArrayWithAllocatorIh13GrowableArrayIhEE6appendERKh.exit9: ; preds = %_ZN26GrowableArrayWithAllocatorIh13GrowableArrayIhEE6appendERKh.exit6, %71
  %81 = phi i32 [ %.pre.i8, %71 ], [ %67, %_ZN26GrowableArrayWithAllocatorIh13GrowableArrayIhEE6appendERKh.exit6 ]
  %82 = add nsw i32 %81, 1
  store i32 %82, ptr %66, align 8
  %83 = getelementptr inbounds i8, ptr %66, i64 8
  %84 = load ptr, ptr %83, align 8
  %85 = sext i32 %81 to i64
  %86 = getelementptr inbounds i8, ptr %84, i64 %85
  store i8 0, ptr %86, align 1
  %87 = load ptr, ptr %0, align 8
  %88 = load i32, ptr %87, align 4
  %89 = getelementptr inbounds i8, ptr %87, i64 8
  %90 = load ptr, ptr %89, align 8
  %91 = sext i32 %88 to i64
  %92 = getelementptr i8, ptr %90, i64 %91
  %93 = getelementptr i8, ptr %92, i64 -4
  %94 = tail call noundef i32 @llvm.bswap.i32(i32 %1)
  %95 = ptrtoint ptr %93 to i64
  %96 = and i64 %95, 3
  %97 = icmp eq i64 %96, 0
  br i1 %97, label %98, label %99

98:                                               ; preds = %_ZN26GrowableArrayWithAllocatorIh13GrowableArrayIhEE6appendERKh.exit9
  store i32 %94, ptr %93, align 4
  br label %_ZN5Bytes11put_Java_u4EPhj.exit

99:                                               ; preds = %_ZN26GrowableArrayWithAllocatorIh13GrowableArrayIhEE6appendERKh.exit9
  store i32 %94, ptr %93, align 1
  br label %_ZN5Bytes11put_Java_u4EPhj.exit

_ZN5Bytes11put_Java_u4EPhj.exit:                  ; preds = %98, %99
  ret void
}